; Function Attrs: mustprogress uwtable
define internal { double, double } @_ZL14merc_e_inverse5PJ_XYP8PJconsts(double %0, double %1, ptr noundef readonly captures(none) %2) #0 {
  %4 = load ptr, ptr %2, align 8, !tbaa !40
  %5 = getelementptr inbounds nuw i8, ptr %2, i64 488
  %6 = load double, ptr %5, align 8, !tbaa !44
  %7 = fdiv double %1, %6
  %8 = tail call double @sinh(double noundef %7) #6, !tbaa !43
  %9 = getelementptr inbounds nuw i8, ptr %2, i64 208
  %10 = load double, ptr %9, align 8, !tbaa !47
  %11 = tail call noundef double @_Z17pj_sinhpsi2tanphiP6pj_ctxdd(ptr noundef %4, double noundef %8, double noundef %10)
  %12 = tail call double @atan(double noundef %11) #6, !tbaa !43
  %13 = load double, ptr %5, align 8, !tbaa !44
  %14 = fdiv double %0, %13
  %.fca.0.insert = insertvalue { double, double } poison, double %14, 0
  %.fca.1.insert = insertvalue { double, double } %.fca.0.insert, double %12, 1
  ret { double, double } %.fca.1.insert
}